target datalayout = "e-m:e-p270:32:32-p271:32:32-p272:64:64-i64:64-i128:128-f80:128-n8:16:32:64-S128"
target triple = "x86_64-pc-linux-gnu"

%struct.Nwk_Obj_t_ = type { ptr, ptr, ptr, %union.anon, i32, i32, i32, i32, float, float, float, i32, i32, i32, ptr }
%union.anon = type { ptr }
%struct.Nwk_Man_t_ = type { ptr, ptr, ptr, ptr, ptr, [5 x i32], i32, ptr, ptr, ptr, ptr, ptr, i32, i32, i32, i32, i32 }
%struct.Vec_Ptr_t_ = type { i32, i32, ptr }

@.str = private unnamed_addr constant [68 x i8] c"Nwk_ManRetimeVerifyCutForward(): Internal cut verification failed.\0A\00", align 1

; Function Attrs: inlinehint nounwind uwtable
define internal ptr @Vec_PtrEntry(ptr noundef %0, i32 noundef %1) #2 {
  %3 = alloca ptr, align 8
  %4 = alloca i32, align 4
  store ptr %0, ptr %3, align 8, !tbaa !37
  store i32 %1, ptr %4, align 4, !tbaa !8
  %5 = load ptr, ptr %3, align 8, !tbaa !37
  %6 = getelementptr inbounds nuw %struct.Vec_Ptr_t_, ptr %5, i32 0, i32 2
  %7 = load ptr, ptr %6, align 8, !tbaa !44
  %8 = load i32, ptr %4, align 4, !tbaa !8
  %9 = sext i32 %8 to i64
  %10 = getelementptr inbounds ptr, ptr %7, i64 %9
  %11 = load ptr, ptr %10, align 8, !tbaa !45
  ret ptr %11
}

; Function Attrs: inlinehint nounwind uwtable
define internal i32 @Vec_PtrSize(ptr noundef %0) #2 {
  %2 = alloca ptr, align 8
  store ptr %0, ptr %2, align 8, !tbaa !37
  %3 = load ptr, ptr %2, align 8, !tbaa !37
  %4 = getelementptr inbounds nuw %struct.Vec_Ptr_t_, ptr %3, i32 0, i32 1
  %5 = load i32, ptr %4, align 4, !tbaa !42
  ret i32 %5
}

; Function Attrs: nounwind uwtable
define i32 @Nwk_ManRetimeVerifyCutForward(ptr noundef %0, ptr noundef %1) #0 {
  %3 = alloca ptr, align 8
  %4 = alloca ptr, align 8
  %5 = alloca ptr, align 8
  %6 = alloca i32, align 4
  store ptr %0, ptr %3, align 8, !tbaa !36
  store ptr %1, ptr %4, align 8, !tbaa !37
  call void @llvm.lifetime.start.p0(i64 8, ptr %5) #9
  call void @llvm.lifetime.start.p0(i64 4, ptr %6) #9
  store i32 0, ptr %6, align 4, !tbaa !8
  br label %7

7:                                                ; preds = %24, %2
  %8 = load i32, ptr %6, align 4, !tbaa !8
  %9 = load ptr, ptr %4, align 8, !tbaa !37
  %10 = call i32 @Vec_PtrSize(ptr noundef %9)
  %11 = icmp slt i32 %8, %10
  br i1 %11, label %12, label %16

12:                                               ; preds = %7
  %13 = load ptr, ptr %4, align 8, !tbaa !37
  %14 = load i32, ptr %6, align 4, !tbaa !8
  %15 = call ptr @Vec_PtrEntry(ptr noundef %13, i32 noundef %14)
  store ptr %15, ptr %5, align 8, !tbaa !3
  br label %16

16:                                               ; preds = %12, %7
  %17 = phi i1 [ false, %7 ], [ true, %12 ]
  br i1 %17, label %18, label %27

18:                                               ; preds = %16
  %19 = load ptr, ptr %5, align 8, !tbaa !3
  %20 = getelementptr inbounds nuw %struct.Nwk_Obj_t_, ptr %19, i32 0, i32 4
  %21 = load i32, ptr %20, align 8
  %22 = and i32 %21, -17
  %23 = or i32 %22, 16
  store i32 %23, ptr %20, align 8
  br label %24

24:                                               ; preds = %18
  %25 = load i32, ptr %6, align 4, !tbaa !8
  %26 = add nsw i32 %25, 1
  store i32 %26, ptr %6, align 4, !tbaa !8
  br label %7, !llvm.loop !38

27:                                               ; preds = %16
  %28 = load ptr, ptr %3, align 8, !tbaa !36
  call void @Nwk_ManIncrementTravId(ptr noundef %28)
  store i32 0, ptr %6, align 4, !tbaa !8
  br label %29

29:                                               ; preds = %51, %27
  %30 = load i32, ptr %6, align 4, !tbaa !8
  %31 = load ptr, ptr %3, align 8, !tbaa !36
  %32 = getelementptr inbounds nuw %struct.Nwk_Man_t_, ptr %31, i32 0, i32 3
  %33 = load ptr, ptr %32, align 8, !tbaa !39
  %34 = call i32 @Vec_PtrSize(ptr noundef %33)
  %35 = icmp slt i32 %30, %34
  br i1 %35, label %36, label %42

36:                                               ; preds = %29
  %37 = load ptr, ptr %3, align 8, !tbaa !36
  %38 = getelementptr inbounds nuw %struct.Nwk_Man_t_, ptr %37, i32 0, i32 3
  %39 = load ptr, ptr %38, align 8, !tbaa !39
  %40 = load i32, ptr %6, align 4, !tbaa !8
  %41 = call ptr @Vec_PtrEntry(ptr noundef %39, i32 noundef %40)
  store ptr %41, ptr %5, align 8, !tbaa !3
  br label %42

42:                                               ; preds = %36, %29
  %43 = phi i1 [ false, %29 ], [ true, %36 ]
  br i1 %43, label %44, label %54

44:                                               ; preds = %42
  %45 = load ptr, ptr %5, align 8, !tbaa !3
  %46 = call i32 @Nwk_ManVerifyCut_rec(ptr noundef %45)
  %47 = icmp ne i32 %46, 0
  br i1 %47, label %50, label %48

48:                                               ; preds = %44
  %49 = call i32 (ptr, ...) @printf(ptr noundef @.str)
  br label %50

50:                                               ; preds = %48, %44
  br label %51

51:                                               ; preds = %50
  %52 = load i32, ptr %6, align 4, !tbaa !8
  %53 = add nsw i32 %52, 1
  store i32 %53, ptr %6, align 4, !tbaa !8
  br label %29, !llvm.loop !40

54:                                               ; preds = %42
  store i32 0, ptr %6, align 4, !tbaa !8
  br label %55

55:                                               ; preds = %72, %54
  %56 = load i32, ptr %6, align 4, !tbaa !8
  %57 = load ptr, ptr %4, align 8, !tbaa !37
  %58 = call i32 @Vec_PtrSize(ptr noundef %57)
  %59 = icmp slt i32 %56, %58
  br i1 %59, label %60, label %64

60:                                               ; preds = %55
  %61 = load ptr, ptr %4, align 8, !tbaa !37
  %62 = load i32, ptr %6, align 4, !tbaa !8
  %63 = call ptr @Vec_PtrEntry(ptr noundef %61, i32 noundef %62)
  store ptr %63, ptr %5, align 8, !tbaa !3
  br label %64

64:                                               ; preds = %60, %55
  %65 = phi i1 [ false, %55 ], [ true, %60 ]
  br i1 %65, label %66, label %75

66:                                               ; preds = %64
  %67 = load ptr, ptr %5, align 8, !tbaa !3
  %68 = getelementptr inbounds nuw %struct.Nwk_Obj_t_, ptr %67, i32 0, i32 4
  %69 = load i32, ptr %68, align 8
  %70 = and i32 %69, -17
  %71 = or i32 %70, 0
  store i32 %71, ptr %68, align 8
  br label %72

72:                                               ; preds = %66
  %73 = load i32, ptr %6, align 4, !tbaa !8
  %74 = add nsw i32 %73, 1
  store i32 %74, ptr %6, align 4, !tbaa !8
  br label %55, !llvm.loop !41

75:                                               ; preds = %64
  call void @llvm.lifetime.end.p0(i64 4, ptr %6) #9
  call void @llvm.lifetime.end.p0(i64 8, ptr %5) #9
  ret i32 1
}