; Function Attrs: nounwind uwtable
define noundef i32 @Nwk_ManRetimeVerifyCutForward(ptr noundef %0, ptr noundef readonly captures(none) %1) local_unnamed_addr #2 {
  %3 = getelementptr i8, ptr %1, i64 4
  %.val27 = load i32, ptr %3, align 4, !tbaa !35
  %4 = icmp sgt i32 %.val27, 0
  br i1 %4, label %.lr.ph, label %.critedge

.lr.ph:                                           ; preds = %2
  %5 = getelementptr i8, ptr %1, i64 8
  br label %6

6:                                                ; preds = %.lr.ph, %6
  %indvars.iv = phi i64 [ 0, %.lr.ph ], [ %indvars.iv.next, %6 ]
  %.val24 = load ptr, ptr %5, align 8, !tbaa !37
  %7 = getelementptr inbounds nuw ptr, ptr %.val24, i64 %indvars.iv
  %8 = load ptr, ptr %7, align 8, !tbaa !38
  %9 = getelementptr inbounds nuw i8, ptr %8, i64 32
  %10 = load i32, ptr %9, align 8
  %11 = or i32 %10, 16
  store i32 %11, ptr %9, align 8
  %indvars.iv.next = add nuw nsw i64 %indvars.iv, 1
  %.val = load i32, ptr %3, align 4, !tbaa !35
  %12 = sext i32 %.val to i64
  %13 = icmp slt i64 %indvars.iv.next, %12
  br i1 %13, label %6, label %.critedge, !llvm.loop !39

.critedge:                                        ; preds = %6, %2
  tail call void @Nwk_ManIncrementTravId(ptr noundef %0) #14
  %14 = getelementptr inbounds nuw i8, ptr %0, i64 24
  %15 = load ptr, ptr %14, align 8, !tbaa !40
  %16 = getelementptr i8, ptr %15, i64 4
  %.val2229 = load i32, ptr %16, align 4, !tbaa !35
  %17 = icmp sgt i32 %.val2229, 0
  br i1 %17, label %.lr.ph31, label %.critedge2.preheader

.critedge2.preheader:                             ; preds = %26, %.critedge
  %.val2332 = load i32, ptr %3, align 4, !tbaa !35
  %18 = icmp sgt i32 %.val2332, 0
  br i1 %18, label %.lr.ph34, label %.critedge4

.lr.ph34:                                         ; preds = %.critedge2.preheader
  %19 = getelementptr i8, ptr %1, i64 8
  br label %.critedge2

.lr.ph31:                                         ; preds = %.critedge, %26
  %indvars.iv36 = phi i64 [ %indvars.iv.next37, %26 ], [ 0, %.critedge ]
  %20 = phi ptr [ %27, %26 ], [ %15, %.critedge ]
  %21 = getelementptr i8, ptr %20, i64 8
  %.val25 = load ptr, ptr %21, align 8, !tbaa !37
  %22 = getelementptr inbounds nuw ptr, ptr %.val25, i64 %indvars.iv36
  %23 = load ptr, ptr %22, align 8, !tbaa !38
  %24 = tail call i32 @Nwk_ManVerifyCut_rec(ptr noundef %23)
  %.not = icmp eq i32 %24, 0
  br i1 %.not, label %25, label %26

25:                                               ; preds = %.lr.ph31
  %puts = tail call i32 @puts(ptr nonnull dereferenceable(1) @str)
  br label %26

26:                                               ; preds = %.lr.ph31, %25
  %indvars.iv.next37 = add nuw nsw i64 %indvars.iv36, 1
  %27 = load ptr, ptr %14, align 8, !tbaa !40
  %28 = getelementptr i8, ptr %27, i64 4
  %.val22 = load i32, ptr %28, align 4, !tbaa !35
  %29 = sext i32 %.val22 to i64
  %30 = icmp slt i64 %indvars.iv.next37, %29
  br i1 %30, label %.lr.ph31, label %.critedge2.preheader, !llvm.loop !41

.critedge2:                                       ; preds = %.lr.ph34, %.critedge2
  %indvars.iv39 = phi i64 [ 0, %.lr.ph34 ], [ %indvars.iv.next40, %.critedge2 ]
  %.val26 = load ptr, ptr %19, align 8, !tbaa !37
  %31 = getelementptr inbounds nuw ptr, ptr %.val26, i64 %indvars.iv39
  %32 = load ptr, ptr %31, align 8, !tbaa !38
  %33 = getelementptr inbounds nuw i8, ptr %32, i64 32
  %34 = load i32, ptr %33, align 8
  %35 = and i32 %34, -17
  store i32 %35, ptr %33, align 8
  %indvars.iv.next40 = add nuw nsw i64 %indvars.iv39, 1
  %.val23 = load i32, ptr %3, align 4, !tbaa !35
  %36 = sext i32 %.val23 to i64
  %37 = icmp slt i64 %indvars.iv.next40, %36
  br i1 %37, label %.critedge2, label %.critedge4, !llvm.loop !42

.critedge4:                                       ; preds = %.critedge2, %.critedge2.preheader
  ret i32 1
}